; Function Attrs: mustprogress nofree norecurse nosync nounwind memory(readwrite, inaccessiblemem: none) uwtable
define dso_local noundef nonnull align 8 dereferenceable(32) ptr @_ZNK4llvm16MachObjectWriter17findAliasedSymbolERKNS_8MCSymbolE(ptr nocapture noundef nonnull readnone align 8 dereferenceable(2032) %0, ptr noundef nonnull align 8 dereferenceable(32) %1) local_unnamed_addr #6 align 2 {
  %3 = getelementptr inbounds nuw i8, ptr %1, i64 8
  %4 = load i64, ptr %3, align 8
  %5 = and i64 %4, 28672
  %6 = icmp eq i64 %5, 8192
  br i1 %6, label %.lr.ph, label %._crit_edge

.lr.ph:                                           ; preds = %2, %13
  %7 = phi i64 [ %17, %13 ], [ %4, %2 ]
  %8 = phi ptr [ %16, %13 ], [ %3, %2 ]
  %.0911 = phi ptr [ %15, %13 ], [ %1, %2 ]
  %9 = or i64 %7, 8
  store i64 %9, ptr %8, align 8
  %10 = getelementptr inbounds nuw i8, ptr %.0911, i64 24
  %11 = load ptr, ptr %10, align 8
  %12 = load i8, ptr %11, align 8
  %.not = icmp eq i8 %12, 2
  br i1 %.not, label %13, label %._crit_edge

13:                                               ; preds = %.lr.ph
  %14 = getelementptr inbounds nuw i8, ptr %11, i64 16
  %15 = load ptr, ptr %14, align 8
  %16 = getelementptr inbounds nuw i8, ptr %15, i64 8
  %17 = load i64, ptr %16, align 8
  %18 = and i64 %17, 28672
  %19 = icmp eq i64 %18, 8192
  br i1 %19, label %.lr.ph, label %._crit_edge, !llvm.loop !25

._crit_edge:                                      ; preds = %.lr.ph, %13, %2
  %.09.lcssa = phi ptr [ %1, %2 ], [ %15, %13 ], [ %.0911, %.lr.ph ]
  ret ptr %.09.lcssa
}